target datalayout = "e-m:e-p270:32:32-p271:32:32-p272:64:64-i64:64-i128:128-f80:128-n8:16:32:64-S128"
target triple = "x86_64-pc-linux-gnu"

%struct.AVFormatContext = type { ptr, ptr, ptr, ptr, ptr, i32, i32, ptr, i32, ptr, i32, ptr, ptr, i64, i64, i64, i32, i32, i32, i64, i64, ptr, i32, i32, ptr, i32, i32, i32, i32, ptr, i64, i32, i32, %struct.AVIOInterruptCB, i32, i32, i32, i32, i64, i32, i32, i32, i32, i32, i32, i32, i32, i32, i32, i32, i32, i64, i32, i32, i32, i32, i32, ptr, ptr, ptr, ptr, i32, ptr, ptr, ptr, ptr, i32, ptr, ptr, i64, ptr, ptr, ptr, i64 }
%struct.AVIOInterruptCB = type { ptr, ptr }

@.str.3 = private unnamed_addr constant [12 x i8] c";FFMETADATA\00", align 1

; Function Attrs: nounwind uwtable
define internal i32 @write_header(ptr noundef %0) #0 {
  %2 = alloca ptr, align 8
  store ptr %0, ptr %2, align 8, !tbaa !4
  %3 = load ptr, ptr %2, align 8, !tbaa !4
  %4 = getelementptr inbounds nuw %struct.AVFormatContext, ptr %3, i32 0, i32 4
  %5 = load ptr, ptr %4, align 8, !tbaa !9
  call void @avio_write(ptr noundef %5, ptr noundef @.str.3, i32 noundef 11)
  %6 = load ptr, ptr %2, align 8, !tbaa !4
  %7 = getelementptr inbounds nuw %struct.AVFormatContext, ptr %6, i32 0, i32 4
  %8 = load ptr, ptr %7, align 8, !tbaa !9
  call void @avio_w8(ptr noundef %8, i32 noundef 49)
  %9 = load ptr, ptr %2, align 8, !tbaa !4
  %10 = getelementptr inbounds nuw %struct.AVFormatContext, ptr %9, i32 0, i32 4
  %11 = load ptr, ptr %10, align 8, !tbaa !9
  call void @avio_w8(ptr noundef %11, i32 noundef 10)
  ret i32 0
}