; Function Attrs: nounwind uwtable
define internal noundef i32 @write_header(ptr noundef readonly captures(none) %0) #0 {
  %2 = getelementptr inbounds nuw i8, ptr %0, i64 32
  %3 = load ptr, ptr %2, align 8, !tbaa !4
  tail call void @avio_write(ptr noundef %3, ptr noundef nonnull @.str.3, i32 noundef 11) #3
  %4 = load ptr, ptr %2, align 8, !tbaa !4
  tail call void @avio_w8(ptr noundef %4, i32 noundef 49) #3
  %5 = load ptr, ptr %2, align 8, !tbaa !4
  tail call void @avio_w8(ptr noundef %5, i32 noundef 10) #3
  ret i32 0
}